target datalayout = "e-m:e-p270:32:32-p271:32:32-p272:64:64-i64:64-i128:128-f80:128-n8:16:32:64-S128"
target triple = "x86_64-pc-linux-gnu"

; Function Attrs: mustprogress nounwind uwtable
define internal noundef i32 @_ZL9calc_Nbinfif(float noundef %0, i32 noundef %1, float noundef %2) #4 {
  %4 = alloca i32, align 4
  %5 = alloca float, align 4
  %6 = alloca i32, align 4
  %7 = alloca float, align 4
  %8 = alloca float, align 4
  %9 = alloca float, align 4
  %10 = alloca float, align 4
  %11 = alloca float, align 4
  %12 = alloca float, align 4
  %13 = alloca i32, align 4
  %14 = alloca i32, align 4
  store float %0, ptr %5, align 4, !tbaa !17
  store i32 %1, ptr %6, align 4, !tbaa !11
  store float %2, ptr %7, align 4, !tbaa !17
  call void @llvm.lifetime.start.p0(i64 4, ptr %8) #17
  call void @llvm.lifetime.start.p0(i64 4, ptr %9) #17
  call void @llvm.lifetime.start.p0(i64 4, ptr %10) #17
  call void @llvm.lifetime.start.p0(i64 4, ptr %11) #17
  call void @llvm.lifetime.start.p0(i64 4, ptr %12) #17
  call void @llvm.lifetime.start.p0(i64 4, ptr %13) #17
  %15 = load float, ptr %5, align 4, !tbaa !17
  %16 = fcmp olt float %15, 0.000000e+00
  br i1 %16, label %17, label %20

17:                                               ; preds = %3
  %18 = load float, ptr %5, align 4, !tbaa !17
  %19 = fadd float %18, 0x401921FB60000000
  store float %19, ptr %5, align 4, !tbaa !17
  br label %20

20:                                               ; preds = %17, %3
  %21 = load i32, ptr %6, align 4, !tbaa !11
  %22 = sitofp i32 %21 to double
  %23 = fdiv double 3.600000e+02, %22
  %24 = fptrunc double %23 to float
  store float %24, ptr %8, align 4, !tbaa !17
  %25 = load float, ptr %7, align 4, !tbaa !17
  %26 = load float, ptr %8, align 4, !tbaa !17
  %27 = fmul float %25, %26
  store float %27, ptr %9, align 4, !tbaa !17
  %28 = load float, ptr %8, align 4, !tbaa !17
  %29 = load float, ptr %9, align 4, !tbaa !17
  %30 = fsub float %28, %29
  %31 = fpext float %30 to double
  %32 = fdiv double %31, 2.000000e+00
  %33 = fptrunc double %32 to float
  store float %33, ptr %10, align 4, !tbaa !17
  store i32 1, ptr %13, align 4, !tbaa !11
  br label %34

34:                                               ; preds = %71, %20
  %35 = load i32, ptr %13, align 4, !tbaa !11
  %36 = load i32, ptr %6, align 4, !tbaa !11
  %37 = icmp sle i32 %35, %36
  br i1 %37, label %38, label %74

38:                                               ; preds = %34
  %39 = load i32, ptr %13, align 4, !tbaa !11
  %40 = sub nsw i32 %39, 1
  %41 = sitofp i32 %40 to float
  %42 = load float, ptr %8, align 4, !tbaa !17
  %43 = load float, ptr %10, align 4, !tbaa !17
  %44 = call float @llvm.fmuladd.f32(float %41, float %42, float %43)
  store float %44, ptr %11, align 4, !tbaa !17
  %45 = load i32, ptr %13, align 4, !tbaa !11
  %46 = sub nsw i32 %45, 1
  %47 = sitofp i32 %46 to float
  %48 = load float, ptr %8, align 4, !tbaa !17
  %49 = load float, ptr %10, align 4, !tbaa !17
  %50 = call float @llvm.fmuladd.f32(float %47, float %48, float %49)
  %51 = load float, ptr %9, align 4, !tbaa !17
  %52 = fadd float %50, %51
  store float %52, ptr %12, align 4, !tbaa !17
  %53 = load float, ptr %11, align 4, !tbaa !17
  %54 = fpext float %53 to double
  %55 = fmul double %54, 0x3F91DF46A2529D39
  %56 = fptrunc double %55 to float
  store float %56, ptr %11, align 4, !tbaa !17
  %57 = load float, ptr %12, align 4, !tbaa !17
  %58 = fpext float %57 to double
  %59 = fmul double %58, 0x3F91DF46A2529D39
  %60 = fptrunc double %59 to float
  store float %60, ptr %12, align 4, !tbaa !17
  %61 = load float, ptr %5, align 4, !tbaa !17
  %62 = load float, ptr %11, align 4, !tbaa !17
  %63 = fcmp ogt float %61, %62
  br i1 %63, label %64, label %70

64:                                               ; preds = %38
  %65 = load float, ptr %5, align 4, !tbaa !17
  %66 = load float, ptr %12, align 4, !tbaa !17
  %67 = fcmp olt float %65, %66
  br i1 %67, label %68, label %70

68:                                               ; preds = %64
  %69 = load i32, ptr %13, align 4, !tbaa !11
  store i32 %69, ptr %4, align 4
  store i32 1, ptr %14, align 4
  br label %75

70:                                               ; preds = %64, %38
  br label %71

71:                                               ; preds = %70
  %72 = load i32, ptr %13, align 4, !tbaa !11
  %73 = add nsw i32 %72, 1
  store i32 %73, ptr %13, align 4, !tbaa !11
  br label %34, !llvm.loop !129

74:                                               ; preds = %34
  store i32 0, ptr %4, align 4
  store i32 1, ptr %14, align 4
  br label %75

75:                                               ; preds = %74, %68
  call void @llvm.lifetime.end.p0(i64 4, ptr %13) #17
  call void @llvm.lifetime.end.p0(i64 4, ptr %12) #17
  call void @llvm.lifetime.end.p0(i64 4, ptr %11) #17
  call void @llvm.lifetime.end.p0(i64 4, ptr %10) #17
  call void @llvm.lifetime.end.p0(i64 4, ptr %9) #17
  call void @llvm.lifetime.end.p0(i64 4, ptr %8) #17
  %76 = load i32, ptr %4, align 4
  ret i32 %76
}