; Function Attrs: mustprogress nofree norecurse nosync nounwind willreturn memory(none) uwtable
define internal noundef i32 @_ZL9calc_Nbinfif(float noundef %0, i32 noundef %1, float noundef %2) unnamed_addr #15 {
  %4 = fcmp olt float %0, 0.000000e+00
  %5 = fadd float %0, 0x401921FB60000000
  %.025 = select i1 %4, float %5, float %0
  %6 = sitofp i32 %1 to double
  %7 = fdiv double 3.600000e+02, %6
  %8 = fptrunc double %7 to float
  %9 = fmul float %2, %8
  %10 = fsub float %8, %9
  %11 = fmul float %10, 5.000000e-01
  %.not27 = icmp slt i32 %1, 1
  br i1 %.not27, label %._crit_edge, label %.lr.ph

.lr.ph:                                           ; preds = %3, %25
  %.028 = phi i32 [ %26, %25 ], [ 1, %3 ]
  %12 = add nsw i32 %.028, -1
  %13 = sitofp i32 %12 to float
  %14 = tail call float @llvm.fmuladd.f32(float %13, float %8, float %11)
  %15 = fpext float %14 to double
  %16 = fmul double %15, 0x3F91DF46A2529D39
  %17 = fptrunc double %16 to float
  %18 = fcmp ogt float %.025, %17
  br i1 %18, label %19, label %25

19:                                               ; preds = %.lr.ph
  %20 = fadd float %9, %14
  %21 = fpext float %20 to double
  %22 = fmul double %21, 0x3F91DF46A2529D39
  %23 = fptrunc double %22 to float
  %24 = fcmp olt float %.025, %23
  br i1 %24, label %._crit_edge, label %25

25:                                               ; preds = %.lr.ph, %19
  %26 = add nuw i32 %.028, 1
  %exitcond.not = icmp eq i32 %.028, %1
  br i1 %exitcond.not, label %._crit_edge, label %.lr.ph, !llvm.loop !51

._crit_edge:                                      ; preds = %19, %25, %3
  %.024 = phi i32 [ 0, %3 ], [ 0, %25 ], [ %.028, %19 ]
  ret i32 %.024
}